; Function Attrs: nounwind uwtable
define dso_local range(i64 -211813488000000000, -9223372036854775807) i64 @date2timestamptz_opt_overflow(i32 noundef %0, ptr noundef writeonly captures(address_is_null) %1) local_unnamed_addr #0 {
  %3 = alloca %struct.pg_tm, align 8
  call void @llvm.lifetime.start.p0(i64 56, ptr nonnull %3) #16
  %.not = icmp eq ptr %1, null
  br i1 %.not, label %5, label %4

4:                                                ; preds = %2
  store i32 0, ptr %1, align 4
  br label %5

5:                                                ; preds = %4, %2
  switch i32 %0, label %7 [
    i32 -2147483648, label %39
    i32 2147483647, label %6
  ]

6:                                                ; preds = %5
  br label %39

7:                                                ; preds = %5
  %8 = icmp sgt i32 %0, 106751982
  br i1 %8, label %9, label %15

9:                                                ; preds = %7
  br i1 %.not, label %11, label %10

10:                                               ; preds = %9
  store i32 1, ptr %1, align 4
  br label %39

11:                                               ; preds = %9
  %12 = tail call zeroext i1 @errstart_cold(i32 noundef 21, ptr noundef null) #15
  tail call void @llvm.assume(i1 %12)
  %13 = tail call i32 @errcode(i32 noundef 134217858) #16
  %14 = tail call i32 (ptr, ...) @errmsg(ptr noundef nonnull @.str.14) #16
  tail call void @errfinish(ptr noundef nonnull @.str.3, i32 noundef 675, ptr noundef nonnull @__func__.date2timestamptz_opt_overflow) #16
  unreachable

15:                                               ; preds = %7
  %16 = add nsw i32 %0, 2451545
  %17 = getelementptr inbounds nuw i8, ptr %3, i64 20
  %18 = getelementptr inbounds nuw i8, ptr %3, i64 16
  %19 = getelementptr inbounds nuw i8, ptr %3, i64 12
  call void @j2date(i32 noundef %16, ptr noundef nonnull %17, ptr noundef nonnull %18, ptr noundef nonnull %19) #16
  %20 = getelementptr inbounds nuw i8, ptr %3, i64 8
  store i32 0, ptr %20, align 8
  %21 = getelementptr inbounds nuw i8, ptr %3, i64 4
  store i32 0, ptr %21, align 4
  store i32 0, ptr %3, align 8
  %22 = load ptr, ptr @session_timezone, align 8
  %23 = call i32 @DetermineTimeZoneOffset(ptr noundef nonnull %3, ptr noundef %22) #16
  %24 = sext i32 %0 to i64
  %25 = mul i64 %24, 86400000000
  %26 = sext i32 %23 to i64
  %27 = mul nsw i64 %26, 1000000
  %28 = add i64 %27, %25
  %29 = add i64 %28, 211813488000000000
  %or.cond = icmp ult i64 %29, -9011559254509551616
  br i1 %or.cond, label %39, label %30

30:                                               ; preds = %15
  br i1 %.not, label %35, label %31

31:                                               ; preds = %30
  %32 = icmp slt i64 %28, -211813488000000000
  br i1 %32, label %33, label %34

33:                                               ; preds = %31
  store i32 -1, ptr %1, align 4
  br label %39

34:                                               ; preds = %31
  store i32 1, ptr %1, align 4
  br label %39

35:                                               ; preds = %30
  %36 = call zeroext i1 @errstart_cold(i32 noundef 21, ptr noundef null) #15
  call void @llvm.assume(i1 %36)
  %37 = call i32 @errcode(i32 noundef 134217858) #16
  %38 = call i32 (ptr, ...) @errmsg(ptr noundef nonnull @.str.14) #16
  call void @errfinish(ptr noundef nonnull @.str.3, i32 noundef 711, ptr noundef nonnull @__func__.date2timestamptz_opt_overflow) #16
  unreachable

39:                                               ; preds = %15, %33, %34, %6, %5, %10
  %.0 = phi i64 [ 9223372036854775807, %10 ], [ 9223372036854775807, %6 ], [ %28, %15 ], [ -9223372036854775808, %33 ], [ 9223372036854775807, %34 ], [ -9223372036854775808, %5 ]
  call void @llvm.lifetime.end.p0(i64 56, ptr nonnull %3) #16
  ret i64 %.0
}